target datalayout = "e-m:e-p270:32:32-p271:32:32-p272:64:64-i64:64-i128:128-f80:128-n8:16:32:64-S128"
target triple = "x86_64-pc-linux-gnu"

@proto_register_cipsafety.ett = internal global [5 x ptr] [ptr @ett_cip_safety, ptr @ett_path, ptr @ett_cipsafety_mode_byte, ptr @ett_cipsafety_ack_byte, ptr @ett_cipsafety_mcast_byte], align 16
@proto_register_cipsafety.ett_svalidator = internal global [4 x ptr] [ptr @ett_cip_class_s_validator, ptr @ett_svalidator_rrsc, ptr @ett_svalidator_cmd_data, ptr @ett_svalidator_type], align 16
@.str.409 = private unnamed_addr constant [35 x i8] c"Common Industrial Protocol, Safety\00", align 1
@.str.410 = private unnamed_addr constant [11 x i8] c"CIP Safety\00", align 1
@.str.411 = private unnamed_addr constant [10 x i8] c"cipsafety\00", align 1
@proto_cipsafety = internal global i32 0, align 4
@cipsafety_handle = internal global ptr null, align 8
@.str.412 = private unnamed_addr constant [49 x i8] c"Common Industrial Protocol, Safety - Base - Data\00", align 1
@.str.413 = private unnamed_addr constant [25 x i8] c"CIP Safety - Base - Data\00", align 1
@.str.414 = private unnamed_addr constant [13 x i8] c"cipsafety_bd\00", align 1
@proto_cipsafety_base_data = internal global i32 0, align 4
@cipsafety_base_data_handle = internal global ptr null, align 8
@.str.415 = private unnamed_addr constant [53 x i8] c"Common Industrial Protocol, Safety - Extended - Data\00", align 1
@.str.416 = private unnamed_addr constant [29 x i8] c"CIP Safety - Extended - Data\00", align 1
@.str.417 = private unnamed_addr constant [13 x i8] c"cipsafety_ed\00", align 1
@proto_cipsafety_extended_data = internal global i32 0, align 4
@cipsafety_extended_data_handle = internal global ptr null, align 8
@.str.418 = private unnamed_addr constant [62 x i8] c"Common Industrial Protocol, Safety - Base - Time Coordination\00", align 1
@.str.419 = private unnamed_addr constant [38 x i8] c"CIP Safety - Base - Time Coordination\00", align 1
@.str.420 = private unnamed_addr constant [13 x i8] c"cipsafety_bt\00", align 1
@proto_cipsafety_base_time_coord = internal global i32 0, align 4
@cipsafety_base_time_coord_handle = internal global ptr null, align 8
@.str.421 = private unnamed_addr constant [66 x i8] c"Common Industrial Protocol, Safety - Extended - Time Coordination\00", align 1
@.str.422 = private unnamed_addr constant [42 x i8] c"CIP Safety - Extended - Time Coordination\00", align 1
@.str.423 = private unnamed_addr constant [13 x i8] c"cipsafety_et\00", align 1
@proto_cipsafety_extended_time_coord = internal global i32 0, align 4
@cipsafety_extended_time_coord_handle = internal global ptr null, align 8
@.str.424 = private unnamed_addr constant [22 x i8] c"CIP Safety Supervisor\00", align 1
@.str.425 = private unnamed_addr constant [15 x i8] c"CIPSSupervisor\00", align 1
@.str.426 = private unnamed_addr constant [15 x i8] c"cipssupervisor\00", align 1
@proto_cip_class_s_supervisor = internal global i32 0, align 4
@cip_class_s_supervisor_handle = internal global ptr null, align 8
@.str.427 = private unnamed_addr constant [21 x i8] c"CIP Safety Validator\00", align 1
@.str.428 = private unnamed_addr constant [14 x i8] c"CIPSValidator\00", align 1
@.str.429 = private unnamed_addr constant [14 x i8] c"cipsvalidator\00", align 1
@proto_cip_class_s_validator = internal global i32 0, align 4
@cip_class_s_validator_handle = internal global ptr null, align 8

; Function Attrs: null_pointer_is_valid sspstrong uwtable
define hidden void @proto_register_cipsafety() #0 {
  %1 = alloca ptr, align 8
  %2 = alloca ptr, align 8
  %3 = alloca ptr, align 8
  call void @llvm.lifetime.start.p0(i64 8, ptr %1) #11
  call void @llvm.lifetime.start.p0(i64 8, ptr %2) #11
  call void @llvm.lifetime.start.p0(i64 8, ptr %3) #11
  %4 = call i32 @proto_register_protocol(ptr noundef @.str.409, ptr noundef @.str.410, ptr noundef @.str.411)
  store i32 %4, ptr @proto_cipsafety, align 4
  %5 = load i32, ptr @proto_cipsafety, align 4
  call void @proto_register_field_array(i32 noundef %5, ptr noundef @proto_register_cipsafety.hf, i32 noundef 49)
  call void @proto_register_subtree_array(ptr noundef @proto_register_cipsafety.ett, i32 noundef 5)
  %6 = load i32, ptr @proto_cipsafety, align 4
  %7 = call ptr @expert_register_protocol(i32 noundef %6)
  store ptr %7, ptr %1, align 8
  %8 = load ptr, ptr %1, align 8
  call void @expert_register_field_array(ptr noundef %8, ptr noundef @proto_register_cipsafety.ei, i32 noundef 11)
  %9 = load i32, ptr @proto_cipsafety, align 4
  %10 = call ptr @register_dissector(ptr noundef @.str.411, ptr noundef @dissect_cipsafety, i32 noundef %9)
  store ptr %10, ptr @cipsafety_handle, align 8
  %11 = load i32, ptr @proto_cipsafety, align 4
  %12 = call i32 @proto_register_protocol_in_name_only(ptr noundef @.str.412, ptr noundef @.str.413, ptr noundef @.str.414, i32 noundef %11, i32 noundef 1)
  store i32 %12, ptr @proto_cipsafety_base_data, align 4
  %13 = load i32, ptr @proto_cipsafety_base_data, align 4
  %14 = call ptr @register_dissector(ptr noundef @.str.414, ptr noundef @dissect_cipsafety_base_data, i32 noundef %13)
  store ptr %14, ptr @cipsafety_base_data_handle, align 8
  %15 = load i32, ptr @proto_cipsafety, align 4
  %16 = call i32 @proto_register_protocol_in_name_only(ptr noundef @.str.415, ptr noundef @.str.416, ptr noundef @.str.417, i32 noundef %15, i32 noundef 1)
  store i32 %16, ptr @proto_cipsafety_extended_data, align 4
  %17 = load i32, ptr @proto_cipsafety_extended_data, align 4
  %18 = call ptr @register_dissector(ptr noundef @.str.417, ptr noundef @dissect_cipsafety_extended_data, i32 noundef %17)
  store ptr %18, ptr @cipsafety_extended_data_handle, align 8
  %19 = load i32, ptr @proto_cipsafety, align 4
  %20 = call i32 @proto_register_protocol_in_name_only(ptr noundef @.str.418, ptr noundef @.str.419, ptr noundef @.str.420, i32 noundef %19, i32 noundef 1)
  store i32 %20, ptr @proto_cipsafety_base_time_coord, align 4
  %21 = load i32, ptr @proto_cipsafety_base_time_coord, align 4
  %22 = call ptr @register_dissector(ptr noundef @.str.420, ptr noundef @dissect_cipsafety_base_time_coord, i32 noundef %21)
  store ptr %22, ptr @cipsafety_base_time_coord_handle, align 8
  %23 = load i32, ptr @proto_cipsafety, align 4
  %24 = call i32 @proto_register_protocol_in_name_only(ptr noundef @.str.421, ptr noundef @.str.422, ptr noundef @.str.423, i32 noundef %23, i32 noundef 1)
  store i32 %24, ptr @proto_cipsafety_extended_time_coord, align 4
  %25 = load i32, ptr @proto_cipsafety_extended_time_coord, align 4
  %26 = call ptr @register_dissector(ptr noundef @.str.423, ptr noundef @dissect_cipsafety_extended_time_coord, i32 noundef %25)
  store ptr %26, ptr @cipsafety_extended_time_coord_handle, align 8
  %27 = call i32 @proto_register_protocol(ptr noundef @.str.424, ptr noundef @.str.425, ptr noundef @.str.426)
  store i32 %27, ptr @proto_cip_class_s_supervisor, align 4
  %28 = load i32, ptr @proto_cip_class_s_supervisor, align 4
  %29 = call ptr @register_dissector(ptr noundef @.str.426, ptr noundef @dissect_cip_class_s_supervisor, i32 noundef %28)
  store ptr %29, ptr @cip_class_s_supervisor_handle, align 8
  %30 = load i32, ptr @proto_cip_class_s_supervisor, align 4
  call void @proto_register_field_array(i32 noundef %30, ptr noundef @proto_register_cipsafety.hf_ssupervisor, i32 noundef 108)
  call void @proto_register_subtree_array(ptr noundef @proto_register_cipsafety.ett_ssupervisor, i32 noundef 28)
  %31 = load i32, ptr @proto_cip_class_s_supervisor, align 4
  %32 = call ptr @expert_register_protocol(i32 noundef %31)
  store ptr %32, ptr %2, align 8
  %33 = load ptr, ptr %2, align 8
  call void @expert_register_field_array(ptr noundef %33, ptr noundef @proto_register_cipsafety.ei_ssupervisor, i32 noundef 11)
  %34 = call i32 @proto_register_protocol(ptr noundef @.str.427, ptr noundef @.str.428, ptr noundef @.str.429)
  store i32 %34, ptr @proto_cip_class_s_validator, align 4
  %35 = load i32, ptr @proto_cip_class_s_validator, align 4
  %36 = call ptr @register_dissector(ptr noundef @.str.429, ptr noundef @dissect_cip_class_s_validator, i32 noundef %35)
  store ptr %36, ptr @cip_class_s_validator_handle, align 8
  %37 = load i32, ptr @proto_cip_class_s_validator, align 4
  call void @proto_register_field_array(i32 noundef %37, ptr noundef @proto_register_cipsafety.hf_svalidator, i32 noundef 23)
  call void @proto_register_subtree_array(ptr noundef @proto_register_cipsafety.ett_svalidator, i32 noundef 4)
  %38 = load i32, ptr @proto_cip_class_s_validator, align 4
  %39 = call ptr @expert_register_protocol(i32 noundef %38)
  store ptr %39, ptr %3, align 8
  %40 = load ptr, ptr %3, align 8
  call void @expert_register_field_array(ptr noundef %40, ptr noundef @proto_register_cipsafety.ei_svalidator, i32 noundef 6)
  call void @llvm.lifetime.end.p0(i64 8, ptr %3) #11
  call void @llvm.lifetime.end.p0(i64 8, ptr %2) #11
  call void @llvm.lifetime.end.p0(i64 8, ptr %1) #11
  ret void
}