; Function Attrs: null_pointer_is_valid sspstrong uwtable
define hidden void @proto_register_cipsafety() local_unnamed_addr #2 {
  %1 = tail call i32 @proto_register_protocol(ptr noundef nonnull @.str.409, ptr noundef nonnull @.str.410, ptr noundef nonnull @.str.411)
  store i32 %1, ptr @proto_cipsafety, align 4
  tail call void @proto_register_field_array(i32 noundef %1, ptr noundef nonnull @proto_register_cipsafety.hf, i32 noundef 49)
  tail call void @proto_register_subtree_array(ptr noundef nonnull @proto_register_cipsafety.ett, i32 noundef 5)
  %2 = load i32, ptr @proto_cipsafety, align 4
  %3 = tail call ptr @expert_register_protocol(i32 noundef %2)
  tail call void @expert_register_field_array(ptr noundef %3, ptr noundef nonnull @proto_register_cipsafety.ei, i32 noundef 11)
  %4 = load i32, ptr @proto_cipsafety, align 4
  %5 = tail call ptr @register_dissector(ptr noundef nonnull @.str.411, ptr noundef nonnull @dissect_cipsafety, i32 noundef %4)
  store ptr %5, ptr @cipsafety_handle, align 8
  %6 = load i32, ptr @proto_cipsafety, align 4
  %7 = tail call i32 @proto_register_protocol_in_name_only(ptr noundef nonnull @.str.412, ptr noundef nonnull @.str.413, ptr noundef nonnull @.str.414, i32 noundef %6, i32 noundef 1)
  %8 = tail call ptr @register_dissector(ptr noundef nonnull @.str.414, ptr noundef nonnull @dissect_cipsafety_base_data, i32 noundef %7)
  store ptr %8, ptr @cipsafety_base_data_handle, align 8
  %9 = load i32, ptr @proto_cipsafety, align 4
  %10 = tail call i32 @proto_register_protocol_in_name_only(ptr noundef nonnull @.str.415, ptr noundef nonnull @.str.416, ptr noundef nonnull @.str.417, i32 noundef %9, i32 noundef 1)
  %11 = tail call ptr @register_dissector(ptr noundef nonnull @.str.417, ptr noundef nonnull @dissect_cipsafety_extended_data, i32 noundef %10)
  store ptr %11, ptr @cipsafety_extended_data_handle, align 8
  %12 = load i32, ptr @proto_cipsafety, align 4
  %13 = tail call i32 @proto_register_protocol_in_name_only(ptr noundef nonnull @.str.418, ptr noundef nonnull @.str.419, ptr noundef nonnull @.str.420, i32 noundef %12, i32 noundef 1)
  %14 = tail call ptr @register_dissector(ptr noundef nonnull @.str.420, ptr noundef nonnull @dissect_cipsafety_base_time_coord, i32 noundef %13)
  store ptr %14, ptr @cipsafety_base_time_coord_handle, align 8
  %15 = load i32, ptr @proto_cipsafety, align 4
  %16 = tail call i32 @proto_register_protocol_in_name_only(ptr noundef nonnull @.str.421, ptr noundef nonnull @.str.422, ptr noundef nonnull @.str.423, i32 noundef %15, i32 noundef 1)
  %17 = tail call ptr @register_dissector(ptr noundef nonnull @.str.423, ptr noundef nonnull @dissect_cipsafety_extended_time_coord, i32 noundef %16)
  store ptr %17, ptr @cipsafety_extended_time_coord_handle, align 8
  %18 = tail call i32 @proto_register_protocol(ptr noundef nonnull @.str.424, ptr noundef nonnull @.str.425, ptr noundef nonnull @.str.426)
  store i32 %18, ptr @proto_cip_class_s_supervisor, align 4
  %19 = tail call ptr @register_dissector(ptr noundef nonnull @.str.426, ptr noundef nonnull @dissect_cip_class_s_supervisor, i32 noundef %18)
  store ptr %19, ptr @cip_class_s_supervisor_handle, align 8
  %20 = load i32, ptr @proto_cip_class_s_supervisor, align 4
  tail call void @proto_register_field_array(i32 noundef %20, ptr noundef nonnull @proto_register_cipsafety.hf_ssupervisor, i32 noundef 108)
  tail call void @proto_register_subtree_array(ptr noundef nonnull @proto_register_cipsafety.ett_ssupervisor, i32 noundef 28)
  %21 = load i32, ptr @proto_cip_class_s_supervisor, align 4
  %22 = tail call ptr @expert_register_protocol(i32 noundef %21)
  tail call void @expert_register_field_array(ptr noundef %22, ptr noundef nonnull @proto_register_cipsafety.ei_ssupervisor, i32 noundef 11)
  %23 = tail call i32 @proto_register_protocol(ptr noundef nonnull @.str.427, ptr noundef nonnull @.str.428, ptr noundef nonnull @.str.429)
  store i32 %23, ptr @proto_cip_class_s_validator, align 4
  %24 = tail call ptr @register_dissector(ptr noundef nonnull @.str.429, ptr noundef nonnull @dissect_cip_class_s_validator, i32 noundef %23)
  store ptr %24, ptr @cip_class_s_validator_handle, align 8
  %25 = load i32, ptr @proto_cip_class_s_validator, align 4
  tail call void @proto_register_field_array(i32 noundef %25, ptr noundef nonnull @proto_register_cipsafety.hf_svalidator, i32 noundef 23)
  tail call void @proto_register_subtree_array(ptr noundef nonnull @proto_register_cipsafety.ett_svalidator, i32 noundef 4)
  %26 = load i32, ptr @proto_cip_class_s_validator, align 4
  %27 = tail call ptr @expert_register_protocol(i32 noundef %26)
  tail call void @expert_register_field_array(ptr noundef %27, ptr noundef nonnull @proto_register_cipsafety.ei_svalidator, i32 noundef 6)
  ret void
}